target datalayout = "e-m:e-p270:32:32-p271:32:32-p272:64:64-i64:64-i128:128-f80:128-n8:16:32:64-S128"
target triple = "x86_64-pc-linux-gnu"

@preCloseFD = internal global i32 -1, align 4
@.str.13 = private unnamed_addr constant [12 x i8] c"dup2 failed\00", align 1

; Function Attrs: nounwind uwtable
define void @Java_sun_nio_ch_sctp_SctpNet_preClose0(ptr noundef %0, ptr noundef %1, i32 noundef %2) #0 {
  %4 = alloca ptr, align 8
  %5 = alloca ptr, align 8
  %6 = alloca i32, align 4
  store ptr %0, ptr %4, align 8
  store ptr %1, ptr %5, align 8
  store i32 %2, ptr %6, align 4
  %7 = load i32, ptr @preCloseFD, align 4
  %8 = icmp sge i32 %7, 0
  br i1 %8, label %9, label %17

9:                                                ; preds = %3
  %10 = load i32, ptr @preCloseFD, align 4
  %11 = load i32, ptr %6, align 4
  %12 = call i32 @dup2(i32 noundef %10, i32 noundef %11) #7
  %13 = icmp slt i32 %12, 0
  br i1 %13, label %14, label %16

14:                                               ; preds = %9
  %15 = load ptr, ptr %4, align 8
  call void @JNU_ThrowIOExceptionWithLastError(ptr noundef %15, ptr noundef @.str.13)
  br label %16

16:                                               ; preds = %14, %9
  br label %17

17:                                               ; preds = %16, %3
  ret void
}