; Function Attrs: nounwind uwtable
define void @Java_sun_nio_ch_sctp_SctpNet_preClose0(ptr noundef %0, ptr nocapture noundef readnone %1, i32 noundef %2) local_unnamed_addr #1 {
  %4 = load i32, ptr @preCloseFD, align 4
  %5 = icmp sgt i32 %4, -1
  br i1 %5, label %6, label %10

6:                                                ; preds = %3
  %7 = tail call i32 @dup2(i32 noundef %4, i32 noundef %2) #10
  %8 = icmp slt i32 %7, 0
  br i1 %8, label %9, label %10

9:                                                ; preds = %6
  tail call void @JNU_ThrowIOExceptionWithLastError(ptr noundef %0, ptr noundef nonnull @.str.13) #10
  br label %10

10:                                               ; preds = %6, %9, %3
  ret void
}